#include <math.h>
#include <stdio.h>
#include <stdlib.h>
#include <string.h>

int main()
{
double sz[1000];
int n,a;
double b,c,q,d;
scanf("%d",&n);
for(int i=1;i<=n;i++){
q=0;
scanf("%d",&a);
d=1;
b=2;
for(int j=0;j<a;j++){
c=d+b;
sz[j]=b/d;
d=b;
b=c;
c=0;
}
for(int w=0;w<a;w++){
q=q+sz[w];
}
printf("%.3lf\n",q);
}
}

