; ModuleID = '29/984.c'
source_filename = "29/984.c"
target datalayout = "e-m:e-p270:32:32-p271:32:32-p272:64:64-i64:64-f80:128-n8:16:32:64-S128"
target triple = "x86_64-pc-linux-gnu"

@.str = private unnamed_addr constant [3 x i8] c"%d\00", align 1
@.str.1 = private unnamed_addr constant [7 x i8] c"%.3lf\0A\00", align 1

; Function Attrs: noinline nounwind uwtable
define dso_local i32 @main() #0 {
  %1 = alloca i32, align 4
  %2 = alloca [1000 x double], align 16
  %3 = alloca i32, align 4
  %4 = alloca i32, align 4
  %5 = alloca double, align 8
  %6 = alloca double, align 8
  %7 = alloca double, align 8
  %8 = alloca double, align 8
  %9 = alloca i32, align 4
  %10 = alloca i32, align 4
  %11 = alloca i32, align 4
  store i32 0, i32* %1, align 4
  %12 = call i32 (i8*, ...) @__isoc99_scanf(i8* getelementptr inbounds ([3 x i8], [3 x i8]* @.str, i64 0, i64 0), i32* %3)
  store i32 1, i32* %9, align 4
  br label %13

13:                                               ; preds = %56, %0
  %14 = load i32, i32* %9, align 4
  %15 = load i32, i32* %3, align 4
  %16 = icmp sle i32 %14, %15
  br i1 %16, label %17, label %59

17:                                               ; preds = %13
  store double 0.000000e+00, double* %7, align 8
  %18 = call i32 (i8*, ...) @__isoc99_scanf(i8* getelementptr inbounds ([3 x i8], [3 x i8]* @.str, i64 0, i64 0), i32* %4)
  store double 1.000000e+00, double* %8, align 8
  store double 2.000000e+00, double* %5, align 8
  store i32 0, i32* %10, align 4
  br label %19

19:                                               ; preds = %35, %17
  %20 = load i32, i32* %10, align 4
  %21 = load i32, i32* %4, align 4
  %22 = icmp slt i32 %20, %21
  br i1 %22, label %23, label %38

23:                                               ; preds = %19
  %24 = load double, double* %8, align 8
  %25 = load double, double* %5, align 8
  %26 = fadd double %24, %25
  store double %26, double* %6, align 8
  %27 = load double, double* %5, align 8
  %28 = load double, double* %8, align 8
  %29 = fdiv double %27, %28
  %30 = load i32, i32* %10, align 4
  %31 = sext i32 %30 to i64
  %32 = getelementptr inbounds [1000 x double], [1000 x double]* %2, i64 0, i64 %31
  store double %29, double* %32, align 8
  %33 = load double, double* %5, align 8
  store double %33, double* %8, align 8
  %34 = load double, double* %6, align 8
  store double %34, double* %5, align 8
  store double 0.000000e+00, double* %6, align 8
  br label %35

35:                                               ; preds = %23
  %36 = load i32, i32* %10, align 4
  %37 = add nsw i32 %36, 1
  store i32 %37, i32* %10, align 4
  br label %19

38:                                               ; preds = %19
  store i32 0, i32* %11, align 4
  br label %39

39:                                               ; preds = %50, %38
  %40 = load i32, i32* %11, align 4
  %41 = load i32, i32* %4, align 4
  %42 = icmp slt i32 %40, %41
  br i1 %42, label %43, label %53

43:                                               ; preds = %39
  %44 = load double, double* %7, align 8
  %45 = load i32, i32* %11, align 4
  %46 = sext i32 %45 to i64
  %47 = getelementptr inbounds [1000 x double], [1000 x double]* %2, i64 0, i64 %46
  %48 = load double, double* %47, align 8
  %49 = fadd double %44, %48
  store double %49, double* %7, align 8
  br label %50

50:                                               ; preds = %43
  %51 = load i32, i32* %11, align 4
  %52 = add nsw i32 %51, 1
  store i32 %52, i32* %11, align 4
  br label %39

53:                                               ; preds = %39
  %54 = load double, double* %7, align 8
  %55 = call i32 (i8*, ...) @printf(i8* getelementptr inbounds ([7 x i8], [7 x i8]* @.str.1, i64 0, i64 0), double %54)
  br label %56

56:                                               ; preds = %53
  %57 = load i32, i32* %9, align 4
  %58 = add nsw i32 %57, 1
  store i32 %58, i32* %9, align 4
  br label %13

59:                                               ; preds = %13
  %60 = load i32, i32* %1, align 4
  ret i32 %60
}

declare dso_local i32 @__isoc99_scanf(i8*, ...) #1

declare dso_local i32 @printf(i8*, ...) #1


!llvm.module.flags = !{!0}
!llvm.ident = !{!1}

!0 = !{i32 1, !"wchar_size", i32 4}
!1 = !{!"clang version 10.0.0-4ubuntu1 "}
